; Function Attrs: mustprogress uwtable
define hidden noundef zeroext i1 @_ZN6google8protobuf2io26CopyingOutputStreamAdaptor5FlushEv(ptr noundef nonnull align 8 captures(none) dereferenceable(48) %0) local_unnamed_addr #6 align 2 {
  %2 = getelementptr inbounds nuw i8, ptr %0, i64 17
  %3 = load i8, ptr %2, align 1, !tbaa !59, !range !51, !noundef !52
  %4 = trunc nuw i8 %3 to i1
  br i1 %4, label %_ZN6google8protobuf2io26CopyingOutputStreamAdaptor11WriteBufferEv.exit, label %5

5:                                                ; preds = %1
  %6 = getelementptr inbounds nuw i8, ptr %0, i64 44
  %7 = load i32, ptr %6, align 4, !tbaa !61
  %8 = icmp eq i32 %7, 0
  br i1 %8, label %_ZN6google8protobuf2io26CopyingOutputStreamAdaptor11WriteBufferEv.exit, label %9

9:                                                ; preds = %5
  %10 = getelementptr inbounds nuw i8, ptr %0, i64 8
  %11 = load ptr, ptr %10, align 8, !tbaa !55
  %12 = getelementptr inbounds nuw i8, ptr %0, i64 32
  %13 = load ptr, ptr %12, align 8, !tbaa !53
  %14 = load ptr, ptr %11, align 8, !tbaa !3
  %15 = getelementptr inbounds nuw i8, ptr %14, i64 16
  %16 = load ptr, ptr %15, align 8
  %17 = tail call noundef zeroext i1 %16(ptr noundef nonnull align 8 dereferenceable(8) %11, ptr noundef %13, i32 noundef %7)
  br i1 %17, label %18, label %24

18:                                               ; preds = %9
  %19 = load i32, ptr %6, align 4, !tbaa !61
  %20 = sext i32 %19 to i64
  %21 = getelementptr inbounds nuw i8, ptr %0, i64 24
  %22 = load i64, ptr %21, align 8, !tbaa !62
  %23 = add nsw i64 %22, %20
  store i64 %23, ptr %21, align 8, !tbaa !62
  store i32 0, ptr %6, align 4, !tbaa !61
  br label %_ZN6google8protobuf2io26CopyingOutputStreamAdaptor11WriteBufferEv.exit

24:                                               ; preds = %9
  store i8 1, ptr %2, align 1, !tbaa !59
  store i32 0, ptr %6, align 4, !tbaa !61
  %25 = load ptr, ptr %12, align 8, !tbaa !53
  store ptr null, ptr %12, align 8, !tbaa !53
  %.not.i.i.i.i.i = icmp eq ptr %25, null
  br i1 %.not.i.i.i.i.i, label %_ZN6google8protobuf2io26CopyingOutputStreamAdaptor11WriteBufferEv.exit, label %_ZNKSt14default_deleteIA_hEclIhEENSt9enable_ifIXsr14is_convertibleIPA_T_PS0_EE5valueEvE4typeEPS4_.exit.i.i.i.i.i

_ZNKSt14default_deleteIA_hEclIhEENSt9enable_ifIXsr14is_convertibleIPA_T_PS0_EE5valueEvE4typeEPS4_.exit.i.i.i.i.i: ; preds = %24
  tail call void @_ZdaPv(ptr noundef nonnull %25) #20
  br label %_ZN6google8protobuf2io26CopyingOutputStreamAdaptor11WriteBufferEv.exit

_ZN6google8protobuf2io26CopyingOutputStreamAdaptor11WriteBufferEv.exit: ; preds = %1, %5, %18, %24, %_ZNKSt14default_deleteIA_hEclIhEENSt9enable_ifIXsr14is_convertibleIPA_T_PS0_EE5valueEvE4typeEPS4_.exit.i.i.i.i.i
  %.0.i = phi i1 [ true, %18 ], [ false, %1 ], [ true, %5 ], [ false, %24 ], [ false, %_ZNKSt14default_deleteIA_hEclIhEENSt9enable_ifIXsr14is_convertibleIPA_T_PS0_EE5valueEvE4typeEPS4_.exit.i.i.i.i.i ]
  ret i1 %.0.i
}